target datalayout = "e-m:e-p270:32:32-p271:32:32-p272:64:64-i64:64-i128:128-f80:128-n8:16:32:64-S128"
target triple = "x86_64-pc-linux-gnu"

%"class.std::__cxx11::basic_string" = type { %"struct.std::__cxx11::basic_string<char>::_Alloc_hider", i64, %union.anon.0 }
%"struct.std::__cxx11::basic_string<char>::_Alloc_hider" = type { ptr }
%union.anon.0 = type { i64, [8 x i8] }
%struct.__mbstate_t = type { i32, %union.anon }
%union.anon = type { i32 }
%"class.boost::test_tools::assertion_result" = type { %"class.boost::test_tools::assertion_result::readonly_property65", %"class.boost::shared_ptr" }
%"class.boost::test_tools::assertion_result::readonly_property65" = type { %"class.boost::unit_test::readonly_property" }
%"class.boost::unit_test::readonly_property" = type { %"class.boost::unit_test::class_property" }
%"class.boost::unit_test::class_property" = type { i8 }
%"class.boost::shared_ptr" = type { ptr, %"class.boost::detail::shared_count" }
%"class.boost::detail::shared_count" = type { ptr }
%"class.std::basic_ostream.base" = type { ptr }
%"class.std::__cxx11::basic_stringbuf" = type { %"class.std::basic_streambuf", i32, %"class.std::__cxx11::basic_string" }
%"class.std::basic_streambuf" = type { ptr, ptr, ptr, ptr, ptr, ptr, ptr, %"class.std::locale" }
%"class.std::locale" = type { ptr }
%"class.std::basic_ios" = type { %"class.std::ios_base", ptr, i8, i8, ptr, ptr, ptr, ptr }
%"class.std::ios_base" = type { ptr, i64, i64, i32, i32, i32, ptr, %"struct.std::ios_base::_Words", [8 x %"struct.std::ios_base::_Words"], i32, ptr, %"class.std::locale" }
%"struct.std::ios_base::_Words" = type { ptr, i64 }
%"class.boost::test_tools::output_test_stream" = type { %"class.std::__cxx11::basic_ostringstream.base", ptr, %"class.std::basic_ios" }
%"class.std::__cxx11::basic_ostringstream.base" = type { %"class.std::basic_ostream.base", %"class.std::__cxx11::basic_stringbuf" }
%"struct.boost::test_tools::output_test_stream::Impl" = type { %"class.std::basic_fstream", i8, i8, %"class.std::__cxx11::basic_string" }
%"class.std::basic_fstream" = type { %"class.std::basic_iostream.base", %"class.std::basic_filebuf", %"class.std::basic_ios" }
%"class.std::basic_iostream.base" = type { %"class.std::basic_istream.base", %"class.std::basic_ostream.base" }
%"class.std::basic_istream.base" = type { ptr, i64 }
%"class.std::basic_filebuf" = type { %"class.std::basic_streambuf", %union.pthread_mutex_t, %"class.std::__basic_file", i32, %struct.__mbstate_t, %struct.__mbstate_t, %struct.__mbstate_t, ptr, i64, i8, i8, i8, i8, ptr, ptr, i8, ptr, ptr, i64, ptr, ptr }
%union.pthread_mutex_t = type { %struct.__pthread_mutex_s }
%struct.__pthread_mutex_s = type { i32, i32, i32, i32, i32, i16, i16, %struct.__pthread_internal_list }
%struct.__pthread_internal_list = type { ptr, ptr }
%"class.std::__basic_file" = type <{ ptr, i8, [7 x i8] }>

; Function Attrs: mustprogress nounwind uwtable
define linkonce_odr hidden void @_ZN5boost9unit_test14class_propertyIbEC2Eb(ptr noundef nonnull align 1 dereferenceable(1) %0, i1 noundef zeroext %1) unnamed_addr #4 comdat align 2 {
  %3 = alloca ptr, align 8
  %4 = alloca i8, align 1
  store ptr %0, ptr %3, align 8, !tbaa !3
  %5 = zext i1 %1 to i8
  store i8 %5, ptr %4, align 1, !tbaa !7
  %6 = load ptr, ptr %3, align 8
  %7 = getelementptr inbounds nuw %"class.boost::unit_test::class_property", ptr %6, i32 0, i32 0
  %8 = load i8, ptr %4, align 1, !tbaa !7, !range !11, !noundef !12
  %9 = trunc i8 %8 to i1
  %10 = zext i1 %9 to i8
  store i8 %10, ptr %7, align 1, !tbaa !91
  ret void
}

; Function Attrs: mustprogress nounwind uwtable
define linkonce_odr hidden void @_ZN5boost6detail12shared_countC2Ev(ptr noundef nonnull align 8 dereferenceable(8) %0) unnamed_addr #4 comdat align 2 {
  %2 = alloca ptr, align 8
  store ptr %0, ptr %2, align 8, !tbaa !3
  %3 = load ptr, ptr %2, align 8
  %4 = getelementptr inbounds nuw %"class.boost::detail::shared_count", ptr %3, i32 0, i32 0
  store ptr null, ptr %4, align 8, !tbaa !104
  ret void
}

; Function Attrs: mustprogress uwtable
define linkonce_odr hidden void @_ZN5boost9unit_test17readonly_propertyIbEC2Eb(ptr noundef nonnull align 1 dereferenceable(1) %0, i1 noundef zeroext %1) unnamed_addr #5 comdat align 2 {
  %3 = alloca ptr, align 8
  %4 = alloca i8, align 1
  store ptr %0, ptr %3, align 8, !tbaa !3
  %5 = zext i1 %1 to i8
  store i8 %5, ptr %4, align 1, !tbaa !7
  %6 = load ptr, ptr %3, align 8
  %7 = load i8, ptr %4, align 1, !tbaa !7, !range !11, !noundef !12
  %8 = trunc i8 %7 to i1
  call void @_ZN5boost9unit_test14class_propertyIbEC2Eb(ptr noundef nonnull align 1 dereferenceable(1) %6, i1 noundef zeroext %8)
  ret void
}

; Function Attrs: mustprogress nounwind uwtable
define linkonce_odr hidden void @_ZN5boost10shared_ptrINS_23basic_wrap_stringstreamIcEEEC2Ev(ptr noundef nonnull align 8 dereferenceable(16) %0) unnamed_addr #4 comdat align 2 {
  %2 = alloca ptr, align 8
  store ptr %0, ptr %2, align 8, !tbaa !3
  %3 = load ptr, ptr %2, align 8
  %4 = getelementptr inbounds nuw %"class.boost::shared_ptr", ptr %3, i32 0, i32 0
  store ptr null, ptr %4, align 8, !tbaa !101
  %5 = getelementptr inbounds nuw %"class.boost::shared_ptr", ptr %3, i32 0, i32 1
  call void @_ZN5boost6detail12shared_countC2Ev(ptr noundef nonnull align 8 dereferenceable(8) %5) #3
  ret void
}

; Function Attrs: mustprogress uwtable
define linkonce_odr hidden void @_ZN5boost10test_tools16assertion_result19readonly_property65C2Eb(ptr noundef nonnull align 1 dereferenceable(1) %0, i1 noundef zeroext %1) unnamed_addr #5 comdat align 2 {
  %3 = alloca ptr, align 8
  %4 = alloca i8, align 1
  store ptr %0, ptr %3, align 8, !tbaa !3
  %5 = zext i1 %1 to i8
  store i8 %5, ptr %4, align 1, !tbaa !7
  %6 = load ptr, ptr %3, align 8
  %7 = load i8, ptr %4, align 1, !tbaa !7, !range !11, !noundef !12
  %8 = trunc i8 %7 to i1
  call void @_ZN5boost9unit_test17readonly_propertyIbEC2Eb(ptr noundef nonnull align 1 dereferenceable(1) %6, i1 noundef zeroext %8)
  ret void
}

; Function Attrs: mustprogress uwtable
define linkonce_odr hidden void @_ZN5boost10test_tools16assertion_resultC2Eb(ptr noundef nonnull align 8 dereferenceable(24) %0, i1 noundef zeroext %1) unnamed_addr #5 comdat align 2 {
  %3 = alloca ptr, align 8
  %4 = alloca i8, align 1
  store ptr %0, ptr %3, align 8, !tbaa !3
  %5 = zext i1 %1 to i8
  store i8 %5, ptr %4, align 1, !tbaa !7
  %6 = load ptr, ptr %3, align 8
  %7 = getelementptr inbounds nuw %"class.boost::test_tools::assertion_result", ptr %6, i32 0, i32 0
  %8 = load i8, ptr %4, align 1, !tbaa !7, !range !11, !noundef !12
  %9 = trunc i8 %8 to i1
  call void @_ZN5boost10test_tools16assertion_result19readonly_property65C2Eb(ptr noundef nonnull align 1 dereferenceable(1) %7, i1 noundef zeroext %9)
  %10 = getelementptr inbounds nuw %"class.boost::test_tools::assertion_result", ptr %6, i32 0, i32 1
  call void @_ZN5boost10shared_ptrINS_23basic_wrap_stringstreamIcEEEC2Ev(ptr noundef nonnull align 8 dereferenceable(16) %10) #3
  ret void
}

; Function Attrs: mustprogress nounwind uwtable
define available_externally noundef i64 @_ZNKSt7__cxx1112basic_stringIcSt11char_traitsIcESaIcEE6lengthEv(ptr noundef nonnull align 8 dereferenceable(32) %0) #4 align 2 {
  %2 = alloca ptr, align 8
  store ptr %0, ptr %2, align 8, !tbaa !3
  %3 = load ptr, ptr %2, align 8
  %4 = getelementptr inbounds nuw %"class.std::__cxx11::basic_string", ptr %3, i32 0, i32 1
  %5 = load i64, ptr %4, align 8, !tbaa !76
  ret i64 %5
}

; Function Attrs: mustprogress uwtable
define void @_ZN5boost10test_tools18output_test_stream12check_lengthEmb(ptr dead_on_unwind noalias writable sret(%"class.boost::test_tools::assertion_result") align 8 %0, ptr noundef nonnull align 8 dereferenceable(120) %1, i64 noundef %2, i1 noundef zeroext %3) unnamed_addr #5 align 2 personality ptr @__gxx_personality_v0 {
  %5 = alloca ptr, align 8
  %6 = alloca ptr, align 8
  %7 = alloca i64, align 8
  %8 = alloca i8, align 1
  %9 = alloca i1, align 1
  %10 = alloca ptr, align 8
  %11 = alloca i32, align 4
  store ptr %0, ptr %5, align 8
  store ptr %1, ptr %6, align 8, !tbaa !3
  store i64 %2, ptr %7, align 8, !tbaa !18
  %12 = zext i1 %3 to i8
  store i8 %12, ptr %8, align 1, !tbaa !7
  %13 = load ptr, ptr %6, align 8
  %14 = load ptr, ptr %13, align 8, !tbaa !9
  %15 = getelementptr inbounds ptr, ptr %14, i64 7
  %16 = load ptr, ptr %15, align 8
  call void %16(ptr noundef nonnull align 8 dereferenceable(120) %13)
  store i1 false, ptr %9, align 1
  %17 = getelementptr inbounds nuw %"class.boost::test_tools::output_test_stream", ptr %13, i32 0, i32 1
  %18 = load ptr, ptr %17, align 8, !tbaa !44
  %19 = getelementptr inbounds nuw %"struct.boost::test_tools::output_test_stream::Impl", ptr %18, i32 0, i32 3
  %20 = call noundef i64 @_ZNKSt7__cxx1112basic_stringIcSt11char_traitsIcESaIcEE6lengthEv(ptr noundef nonnull align 8 dereferenceable(32) %19) #3
  %21 = load i64, ptr %7, align 8, !tbaa !18
  %22 = icmp eq i64 %20, %21
  call void @_ZN5boost10test_tools16assertion_resultC2Eb(ptr noundef nonnull align 8 dereferenceable(24) %0, i1 noundef zeroext %22)
  %23 = getelementptr inbounds nuw %"class.boost::test_tools::output_test_stream", ptr %13, i32 0, i32 1
  %24 = load ptr, ptr %23, align 8, !tbaa !44
  invoke void @_ZN5boost10test_tools18output_test_stream4Impl14check_and_fillERNS0_16assertion_resultE(ptr noundef nonnull align 8 dereferenceable(568) %24, ptr noundef nonnull align 8 dereferenceable(24) %0)
          to label %25 unwind label %30

25:                                               ; preds = %4
  %26 = load i8, ptr %8, align 1, !tbaa !7, !range !11, !noundef !12
  %27 = trunc i8 %26 to i1
  br i1 %27, label %28, label %34

28:                                               ; preds = %25
  invoke void @_ZN5boost10test_tools18output_test_stream5flushEv(ptr noundef nonnull align 8 dereferenceable(120) %13)
          to label %29 unwind label %30

29:                                               ; preds = %28
  br label %34

30:                                               ; preds = %28, %4
  %31 = landingpad { ptr, i32 }
          cleanup
  %32 = extractvalue { ptr, i32 } %31, 0
  store ptr %32, ptr %10, align 8
  %33 = extractvalue { ptr, i32 } %31, 1
  store i32 %33, ptr %11, align 4
  call void @_ZN5boost10test_tools16assertion_resultD2Ev(ptr noundef nonnull align 8 dereferenceable(24) %0) #3
  br label %38

34:                                               ; preds = %29, %25
  store i1 true, ptr %9, align 1
  %35 = load i1, ptr %9, align 1
  br i1 %35, label %37, label %36

36:                                               ; preds = %34
  call void @_ZN5boost10test_tools16assertion_resultD2Ev(ptr noundef nonnull align 8 dereferenceable(24) %0) #3
  br label %37

37:                                               ; preds = %36, %34
  ret void

38:                                               ; preds = %30
  %39 = load ptr, ptr %10, align 8
  %40 = load i32, ptr %11, align 4
  %41 = insertvalue { ptr, i32 } poison, ptr %39, 0
  %42 = insertvalue { ptr, i32 } %41, i32 %40, 1
  resume { ptr, i32 } %42
}