; Function Attrs: mustprogress uwtable
define void @_ZN5boost10test_tools18output_test_stream12check_lengthEmb(ptr dead_on_unwind noalias writable sret(%"class.boost::test_tools::assertion_result") align 8 %0, ptr noundef nonnull align 8 dereferenceable(120) %1, i64 noundef %2, i1 noundef zeroext %3) unnamed_addr #3 align 2 personality ptr @__gxx_personality_v0 {
  %5 = load ptr, ptr %1, align 8, !tbaa !3
  %6 = getelementptr inbounds i8, ptr %5, i64 56
  %7 = load ptr, ptr %6, align 8
  tail call void %7(ptr noundef nonnull align 8 dereferenceable(120) %1)
  %8 = getelementptr inbounds nuw i8, ptr %1, i64 112
  %9 = load ptr, ptr %8, align 8, !tbaa !130
  %10 = getelementptr inbounds nuw i8, ptr %9, i64 544
  %11 = load i64, ptr %10, align 8, !tbaa !22
  %12 = icmp eq i64 %11, %2
  %13 = zext i1 %12 to i8
  store i8 %13, ptr %0, align 8, !tbaa !23
  %14 = getelementptr inbounds nuw i8, ptr %0, i64 8
  tail call void @llvm.memset.p0.i64(ptr noundef nonnull align 8 dereferenceable(16) %14, i8 0, i64 16, i1 false)
  invoke void @_ZN5boost10test_tools18output_test_stream4Impl14check_and_fillERNS0_16assertion_resultE(ptr noundef nonnull align 8 dereferenceable(568) %9, ptr noundef nonnull align 8 dereferenceable(24) %0)
          to label %15 unwind label %17

15:                                               ; preds = %4
  br i1 %3, label %16, label %19

16:                                               ; preds = %15
  invoke void @_ZN5boost10test_tools18output_test_stream5flushEv(ptr noundef nonnull align 8 dereferenceable(120) %1)
          to label %19 unwind label %17

17:                                               ; preds = %16, %4
  %18 = landingpad { ptr, i32 }
          cleanup
  tail call void @_ZN5boost10test_tools16assertion_resultD2Ev(ptr noundef nonnull align 8 dereferenceable(24) %0) #30
  resume { ptr, i32 } %18

19:                                               ; preds = %15, %16
  ret void
}